target datalayout = "e-m:e-p270:32:32-p271:32:32-p272:64:64-i64:64-i128:128-f80:128-n8:16:32:64-S128"
target triple = "x86_64-pc-linux-gnu"

%struct.expert_field = type { i32, i32 }
%struct.rlc_info = type { [64 x i32], [64 x i8], [64 x i8], [64 x i32], [64 x i8], [64 x i8] }
%struct.umts_mac_info = type { [64 x i8], [64 x i8], [64 x i8], [64 x i8], [64 x i8], i32, [64 x i8] }

@hf_fph_rb = internal global i32 0, align 4
@hf_fph_urnti = internal global i32 0, align 4
@hf_fph_content = internal global i32 0, align 4
@hf_fph_rlcmode = internal global i32 0, align 4
@hf_fph_rbid = internal global i32 0, align 4
@hf_fph_ctmux = internal global i32 0, align 4
@hf_fph_ciphered = internal global i32 0, align 4
@hf_fph_deciphered = internal global i32 0, align 4
@ett_fph_rb = internal global i32 0, align 4
@ei_fph_radio_bearers = internal global %struct.expert_field zeroinitializer, align 4
@ei_fph_mac_frames = internal global %struct.expert_field zeroinitializer, align 4
@proto_umts_mac = external global i32, align 4
@proto_umts_rlc = external global i32, align 4
@.str.77 = private unnamed_addr constant [86 x i8] c"Frame contains more Radio Bearers than currently supported (%u present, %u supported)\00", align 1
@.str.78 = private unnamed_addr constant [83 x i8] c"Frame contains more MAC Frames than currently supported (%u present, %u supported)\00", align 1

; Function Attrs: null_pointer_is_valid sspstrong uwtable
define internal zeroext i16 @assign_rb_info(ptr noundef %0, ptr noundef %1, i16 noundef zeroext %2, i8 noundef zeroext %3, ptr noundef %4) #0 {
  %6 = alloca i16, align 2
  %7 = alloca ptr, align 8
  %8 = alloca ptr, align 8
  %9 = alloca i16, align 2
  %10 = alloca i8, align 1
  %11 = alloca ptr, align 8
  %12 = alloca i8, align 1
  %13 = alloca i8, align 1
  %14 = alloca i8, align 1
  %15 = alloca i8, align 1
  %16 = alloca i8, align 1
  %17 = alloca i8, align 1
  %18 = alloca i8, align 1
  %19 = alloca i8, align 1
  %20 = alloca i32, align 4
  %21 = alloca ptr, align 8
  %22 = alloca ptr, align 8
  %23 = alloca i32, align 4
  %24 = alloca ptr, align 8
  %25 = alloca ptr, align 8
  store ptr %0, ptr %7, align 8
  store ptr %1, ptr %8, align 8
  store i16 %2, ptr %9, align 2
  store i8 %3, ptr %10, align 1
  store ptr %4, ptr %11, align 8
  call void @llvm.lifetime.start.p0(i64 1, ptr %12) #7
  store i8 0, ptr %12, align 1
  call void @llvm.lifetime.start.p0(i64 1, ptr %13) #7
  call void @llvm.lifetime.start.p0(i64 1, ptr %14) #7
  call void @llvm.lifetime.start.p0(i64 1, ptr %15) #7
  call void @llvm.lifetime.start.p0(i64 1, ptr %16) #7
  call void @llvm.lifetime.start.p0(i64 1, ptr %17) #7
  call void @llvm.lifetime.start.p0(i64 1, ptr %18) #7
  call void @llvm.lifetime.start.p0(i64 1, ptr %19) #7
  call void @llvm.lifetime.start.p0(i64 4, ptr %20) #7
  call void @llvm.lifetime.start.p0(i64 8, ptr %21) #7
  call void @llvm.lifetime.start.p0(i64 8, ptr %22) #7
  %26 = call ptr @wmem_file_scope()
  %27 = load ptr, ptr %8, align 8
  %28 = load i32, ptr @proto_umts_mac, align 4
  %29 = call ptr @p_get_proto_data(ptr noundef %26, ptr noundef %27, i32 noundef %28, i32 noundef 0)
  store ptr %29, ptr %21, align 8
  %30 = call ptr @wmem_file_scope()
  %31 = load ptr, ptr %8, align 8
  %32 = load i32, ptr @proto_umts_rlc, align 4
  %33 = call ptr @p_get_proto_data(ptr noundef %30, ptr noundef %31, i32 noundef %32, i32 noundef 0)
  store ptr %33, ptr %22, align 8
  %34 = load ptr, ptr %21, align 8
  %35 = icmp ne ptr %34, null
  br i1 %35, label %43, label %36

36:                                               ; preds = %5
  %37 = call ptr @wmem_file_scope()
  %38 = call noalias ptr @wmem_alloc0(ptr noundef %37, i64 noundef 388) #8
  store ptr %38, ptr %21, align 8
  %39 = call ptr @wmem_file_scope()
  %40 = load ptr, ptr %8, align 8
  %41 = load i32, ptr @proto_umts_mac, align 4
  %42 = load ptr, ptr %21, align 8
  call void @p_add_proto_data(ptr noundef %39, ptr noundef %40, i32 noundef %41, i32 noundef 0, ptr noundef %42)
  br label %43

43:                                               ; preds = %36, %5
  %44 = load ptr, ptr %22, align 8
  %45 = icmp ne ptr %44, null
  br i1 %45, label %53, label %46

46:                                               ; preds = %43
  %47 = call ptr @wmem_file_scope()
  %48 = call noalias ptr @wmem_alloc0(ptr noundef %47, i64 noundef 768) #8
  store ptr %48, ptr %22, align 8
  %49 = call ptr @wmem_file_scope()
  %50 = load ptr, ptr %8, align 8
  %51 = load i32, ptr @proto_umts_rlc, align 4
  %52 = load ptr, ptr %22, align 8
  call void @p_add_proto_data(ptr noundef %49, ptr noundef %50, i32 noundef %51, i32 noundef 0, ptr noundef %52)
  br label %53

53:                                               ; preds = %46, %43
  br label %54

54:                                               ; preds = %289, %53
  %55 = load i8, ptr %12, align 1
  %56 = zext i8 %55 to i32
  %57 = load i8, ptr %10, align 1
  %58 = zext i8 %57 to i32
  %59 = icmp slt i32 %56, %58
  br i1 %59, label %60, label %296

60:                                               ; preds = %54
  %61 = load ptr, ptr %7, align 8
  %62 = load i16, ptr %9, align 2
  %63 = zext i16 %62 to i32
  %64 = call i32 @tvb_get_letohl(ptr noundef %61, i32 noundef %63)
  store i32 %64, ptr %20, align 4
  %65 = load ptr, ptr %7, align 8
  %66 = load i16, ptr %9, align 2
  %67 = zext i16 %66 to i32
  %68 = add i32 %67, 4
  %69 = call zeroext i8 @tvb_get_uint8(ptr noundef %65, i32 noundef %68)
  store i8 %69, ptr %13, align 1
  %70 = load i8, ptr %13, align 1
  %71 = zext i8 %70 to i32
  %72 = and i32 %71, 3
  %73 = trunc i32 %72 to i8
  store i8 %73, ptr %14, align 1
  %74 = load i8, ptr %13, align 1
  %75 = zext i8 %74 to i32
  %76 = ashr i32 %75, 2
  %77 = and i32 %76, 3
  %78 = trunc i32 %77 to i8
  store i8 %78, ptr %15, align 1
  %79 = load i8, ptr %13, align 1
  %80 = zext i8 %79 to i32
  %81 = ashr i32 %80, 4
  %82 = trunc i32 %81 to i8
  store i8 %82, ptr %16, align 1
  %83 = load ptr, ptr %7, align 8
  %84 = load i16, ptr %9, align 2
  %85 = zext i16 %84 to i32
  %86 = add i32 %85, 5
  %87 = call zeroext i8 @tvb_get_uint8(ptr noundef %83, i32 noundef %86)
  store i8 %87, ptr %13, align 1
  %88 = load i8, ptr %13, align 1
  %89 = zext i8 %88 to i32
  %90 = and i32 %89, 1
  %91 = shl i32 %90, 4
  %92 = load i8, ptr %16, align 1
  %93 = zext i8 %92 to i32
  %94 = or i32 %93, %91
  %95 = trunc i32 %94 to i8
  store i8 %95, ptr %16, align 1
  %96 = load i8, ptr %13, align 1
  %97 = zext i8 %96 to i32
  %98 = ashr i32 %97, 1
  %99 = and i32 %98, 1
  %100 = trunc i32 %99 to i8
  store i8 %100, ptr %17, align 1
  %101 = load i8, ptr %13, align 1
  %102 = zext i8 %101 to i32
  %103 = ashr i32 %102, 2
  %104 = and i32 %103, 1
  %105 = trunc i32 %104 to i8
  store i8 %105, ptr %18, align 1
  %106 = load i8, ptr %13, align 1
  %107 = zext i8 %106 to i32
  %108 = ashr i32 %107, 3
  %109 = and i32 %108, 1
  %110 = trunc i32 %109 to i8
  store i8 %110, ptr %19, align 1
  %111 = load i8, ptr %12, align 1
  %112 = zext i8 %111 to i32
  %113 = icmp sge i32 %112, 64
  br i1 %113, label %114, label %123

114:                                              ; preds = %60
  %115 = load ptr, ptr %11, align 8
  %116 = load ptr, ptr %8, align 8
  %117 = load ptr, ptr %7, align 8
  %118 = load i16, ptr %9, align 2
  %119 = zext i16 %118 to i32
  %120 = load i8, ptr %10, align 1
  %121 = zext i8 %120 to i32
  %122 = call ptr (ptr, ptr, ptr, ptr, i32, i32, ptr, ...) @proto_tree_add_expert_format(ptr noundef %115, ptr noundef %116, ptr noundef @ei_fph_radio_bearers, ptr noundef %117, i32 noundef %119, i32 noundef -1, ptr noundef @.str.77, i32 noundef %121, i32 noundef 64)
  store i16 -1, ptr %6, align 2
  store i32 1, ptr %23, align 4
  br label %298

123:                                              ; preds = %60
  %124 = load i8, ptr %12, align 1
  %125 = zext i8 %124 to i32
  %126 = icmp sge i32 %125, 64
  br i1 %126, label %127, label %136

127:                                              ; preds = %123
  %128 = load ptr, ptr %11, align 8
  %129 = load ptr, ptr %8, align 8
  %130 = load ptr, ptr %7, align 8
  %131 = load i16, ptr %9, align 2
  %132 = zext i16 %131 to i32
  %133 = load i8, ptr %10, align 1
  %134 = zext i8 %133 to i32
  %135 = call ptr (ptr, ptr, ptr, ptr, i32, i32, ptr, ...) @proto_tree_add_expert_format(ptr noundef %128, ptr noundef %129, ptr noundef @ei_fph_mac_frames, ptr noundef %130, i32 noundef %132, i32 noundef -1, ptr noundef @.str.78, i32 noundef %134, i32 noundef 64)
  store i16 -1, ptr %6, align 2
  store i32 1, ptr %23, align 4
  br label %298

136:                                              ; preds = %123
  %137 = load i8, ptr %14, align 1
  %138 = load ptr, ptr %22, align 8
  %139 = getelementptr inbounds nuw %struct.rlc_info, ptr %138, i32 0, i32 1
  %140 = load i8, ptr %12, align 1
  %141 = zext i8 %140 to i64
  %142 = getelementptr [64 x i8], ptr %139, i64 0, i64 %141
  store i8 %137, ptr %142, align 1
  %143 = load i8, ptr %16, align 1
  %144 = load ptr, ptr %22, align 8
  %145 = getelementptr inbounds nuw %struct.rlc_info, ptr %144, i32 0, i32 2
  %146 = load i8, ptr %12, align 1
  %147 = zext i8 %146 to i64
  %148 = getelementptr [64 x i8], ptr %145, i64 0, i64 %147
  store i8 %143, ptr %148, align 1
  %149 = load i32, ptr %20, align 4
  %150 = load ptr, ptr %22, align 8
  %151 = getelementptr inbounds nuw %struct.rlc_info, ptr %150, i32 0, i32 0
  %152 = load i8, ptr %12, align 1
  %153 = zext i8 %152 to i64
  %154 = getelementptr [64 x i32], ptr %151, i64 0, i64 %153
  store i32 %149, ptr %154, align 4
  %155 = load i8, ptr %18, align 1
  %156 = icmp ne i8 %155, 0
  %157 = load ptr, ptr %22, align 8
  %158 = getelementptr inbounds nuw %struct.rlc_info, ptr %157, i32 0, i32 4
  %159 = load i8, ptr %12, align 1
  %160 = zext i8 %159 to i64
  %161 = getelementptr [64 x i8], ptr %158, i64 0, i64 %160
  %162 = zext i1 %156 to i8
  store i8 %162, ptr %161, align 1
  %163 = load i8, ptr %19, align 1
  %164 = icmp ne i8 %163, 0
  %165 = load ptr, ptr %22, align 8
  %166 = getelementptr inbounds nuw %struct.rlc_info, ptr %165, i32 0, i32 5
  %167 = load i8, ptr %12, align 1
  %168 = zext i8 %167 to i64
  %169 = getelementptr [64 x i8], ptr %166, i64 0, i64 %168
  %170 = zext i1 %164 to i8
  store i8 %170, ptr %169, align 1
  %171 = load ptr, ptr %22, align 8
  %172 = getelementptr inbounds nuw %struct.rlc_info, ptr %171, i32 0, i32 3
  %173 = load i8, ptr %12, align 1
  %174 = zext i8 %173 to i64
  %175 = getelementptr [64 x i32], ptr %172, i64 0, i64 %174
  store i32 0, ptr %175, align 4
  %176 = load i8, ptr %17, align 1
  %177 = zext i8 %176 to i32
  %178 = icmp ne i32 %177, 0
  %179 = select i1 %178, i32 1, i32 0
  %180 = icmp ne i32 %179, 0
  %181 = load ptr, ptr %21, align 8
  %182 = getelementptr inbounds nuw %struct.umts_mac_info, ptr %181, i32 0, i32 0
  %183 = load i8, ptr %12, align 1
  %184 = zext i8 %183 to i64
  %185 = getelementptr [64 x i8], ptr %182, i64 0, i64 %184
  %186 = zext i1 %180 to i8
  store i8 %186, ptr %185, align 1
  %187 = load i8, ptr %15, align 1
  %188 = zext i8 %187 to i32
  switch i32 %188, label %207 [
    i32 1, label %189
    i32 2, label %195
    i32 3, label %201
  ]

189:                                              ; preds = %136
  %190 = load ptr, ptr %21, align 8
  %191 = getelementptr inbounds nuw %struct.umts_mac_info, ptr %190, i32 0, i32 1
  %192 = load i8, ptr %12, align 1
  %193 = zext i8 %192 to i64
  %194 = getelementptr [64 x i8], ptr %191, i64 0, i64 %193
  store i8 1, ptr %194, align 1
  br label %213

195:                                              ; preds = %136
  %196 = load ptr, ptr %21, align 8
  %197 = getelementptr inbounds nuw %struct.umts_mac_info, ptr %196, i32 0, i32 1
  %198 = load i8, ptr %12, align 1
  %199 = zext i8 %198 to i64
  %200 = getelementptr [64 x i8], ptr %197, i64 0, i64 %199
  store i8 2, ptr %200, align 1
  br label %213

201:                                              ; preds = %136
  %202 = load ptr, ptr %21, align 8
  %203 = getelementptr inbounds nuw %struct.umts_mac_info, ptr %202, i32 0, i32 1
  %204 = load i8, ptr %12, align 1
  %205 = zext i8 %204 to i64
  %206 = getelementptr [64 x i8], ptr %203, i64 0, i64 %205
  store i8 3, ptr %206, align 1
  br label %213

207:                                              ; preds = %136
  %208 = load ptr, ptr %21, align 8
  %209 = getelementptr inbounds nuw %struct.umts_mac_info, ptr %208, i32 0, i32 1
  %210 = load i8, ptr %12, align 1
  %211 = zext i8 %210 to i64
  %212 = getelementptr [64 x i8], ptr %209, i64 0, i64 %211
  store i8 0, ptr %212, align 1
  br label %213

213:                                              ; preds = %207, %201, %195, %189
  %214 = load ptr, ptr %11, align 8
  %215 = icmp ne ptr %214, null
  br i1 %215, label %216, label %289

216:                                              ; preds = %213
  call void @llvm.lifetime.start.p0(i64 8, ptr %24) #7
  call void @llvm.lifetime.start.p0(i64 8, ptr %25) #7
  %217 = load ptr, ptr %11, align 8
  %218 = load i32, ptr @hf_fph_rb, align 4
  %219 = load ptr, ptr %7, align 8
  %220 = load i16, ptr %9, align 2
  %221 = zext i16 %220 to i32
  %222 = call ptr @proto_tree_add_item(ptr noundef %217, i32 noundef %218, ptr noundef %219, i32 noundef %221, i32 noundef 8, i32 noundef 0)
  store ptr %222, ptr %25, align 8
  %223 = load ptr, ptr %25, align 8
  %224 = load i32, ptr @ett_fph_rb, align 4
  %225 = call ptr @proto_item_add_subtree(ptr noundef %223, i32 noundef %224)
  store ptr %225, ptr %24, align 8
  %226 = load i32, ptr %20, align 4
  %227 = icmp ne i32 %226, 0
  br i1 %227, label %228, label %236

228:                                              ; preds = %216
  %229 = load ptr, ptr %24, align 8
  %230 = load i32, ptr @hf_fph_urnti, align 4
  %231 = load ptr, ptr %7, align 8
  %232 = load i16, ptr %9, align 2
  %233 = zext i16 %232 to i32
  %234 = load i32, ptr %20, align 4
  %235 = call ptr @proto_tree_add_uint(ptr noundef %229, i32 noundef %230, ptr noundef %231, i32 noundef %233, i32 noundef 4, i32 noundef %234)
  br label %236

236:                                              ; preds = %228, %216
  %237 = load ptr, ptr %24, align 8
  %238 = load i32, ptr @hf_fph_content, align 4
  %239 = load ptr, ptr %7, align 8
  %240 = load i16, ptr %9, align 2
  %241 = zext i16 %240 to i32
  %242 = add i32 %241, 4
  %243 = mul i32 %242, 8
  %244 = add i32 %243, 4
  %245 = call ptr @proto_tree_add_bits_item(ptr noundef %237, i32 noundef %238, ptr noundef %239, i32 noundef %244, i32 noundef 2, i32 noundef -2147483648)
  %246 = load ptr, ptr %24, align 8
  %247 = load i32, ptr @hf_fph_rlcmode, align 4
  %248 = load ptr, ptr %7, align 8
  %249 = load i16, ptr %9, align 2
  %250 = zext i16 %249 to i32
  %251 = add i32 %250, 4
  %252 = mul i32 %251, 8
  %253 = add i32 %252, 6
  %254 = call ptr @proto_tree_add_bits_item(ptr noundef %246, i32 noundef %247, ptr noundef %248, i32 noundef %253, i32 noundef 2, i32 noundef -2147483648)
  %255 = load ptr, ptr %24, align 8
  %256 = load i32, ptr @hf_fph_rbid, align 4
  %257 = load ptr, ptr %7, align 8
  %258 = load i16, ptr %9, align 2
  %259 = zext i16 %258 to i32
  %260 = add i32 %259, 4
  %261 = call ptr @proto_tree_add_item(ptr noundef %255, i32 noundef %256, ptr noundef %257, i32 noundef %260, i32 noundef 2, i32 noundef -2147483648)
  %262 = load ptr, ptr %24, align 8
  %263 = load i32, ptr @hf_fph_ctmux, align 4
  %264 = load ptr, ptr %7, align 8
  %265 = load i16, ptr %9, align 2
  %266 = zext i16 %265 to i32
  %267 = add i32 %266, 5
  %268 = load i8, ptr %17, align 1
  %269 = zext i8 %268 to i64
  %270 = call ptr @proto_tree_add_boolean(ptr noundef %262, i32 noundef %263, ptr noundef %264, i32 noundef %267, i32 noundef 1, i64 noundef %269)
  %271 = load ptr, ptr %24, align 8
  %272 = load i32, ptr @hf_fph_ciphered, align 4
  %273 = load ptr, ptr %7, align 8
  %274 = load i16, ptr %9, align 2
  %275 = zext i16 %274 to i32
  %276 = add i32 %275, 5
  %277 = load i8, ptr %18, align 1
  %278 = zext i8 %277 to i64
  %279 = call ptr @proto_tree_add_boolean(ptr noundef %271, i32 noundef %272, ptr noundef %273, i32 noundef %276, i32 noundef 1, i64 noundef %278)
  %280 = load ptr, ptr %24, align 8
  %281 = load i32, ptr @hf_fph_deciphered, align 4
  %282 = load ptr, ptr %7, align 8
  %283 = load i16, ptr %9, align 2
  %284 = zext i16 %283 to i32
  %285 = add i32 %284, 5
  %286 = load i8, ptr %19, align 1
  %287 = zext i8 %286 to i64
  %288 = call ptr @proto_tree_add_boolean(ptr noundef %280, i32 noundef %281, ptr noundef %282, i32 noundef %285, i32 noundef 1, i64 noundef %287)
  call void @llvm.lifetime.end.p0(i64 8, ptr %25) #7
  call void @llvm.lifetime.end.p0(i64 8, ptr %24) #7
  br label %289

289:                                              ; preds = %236, %213
  %290 = load i16, ptr %9, align 2
  %291 = zext i16 %290 to i32
  %292 = add i32 %291, 8
  %293 = trunc i32 %292 to i16
  store i16 %293, ptr %9, align 2
  %294 = load i8, ptr %12, align 1
  %295 = add i8 %294, 1
  store i8 %295, ptr %12, align 1
  br label %54, !llvm.loop !9

296:                                              ; preds = %54
  %297 = load i16, ptr %9, align 2
  store i16 %297, ptr %6, align 2
  store i32 1, ptr %23, align 4
  br label %298

298:                                              ; preds = %296, %127, %114
  call void @llvm.lifetime.end.p0(i64 8, ptr %22) #7
  call void @llvm.lifetime.end.p0(i64 8, ptr %21) #7
  call void @llvm.lifetime.end.p0(i64 4, ptr %20) #7
  call void @llvm.lifetime.end.p0(i64 1, ptr %19) #7
  call void @llvm.lifetime.end.p0(i64 1, ptr %18) #7
  call void @llvm.lifetime.end.p0(i64 1, ptr %17) #7
  call void @llvm.lifetime.end.p0(i64 1, ptr %16) #7
  call void @llvm.lifetime.end.p0(i64 1, ptr %15) #7
  call void @llvm.lifetime.end.p0(i64 1, ptr %14) #7
  call void @llvm.lifetime.end.p0(i64 1, ptr %13) #7
  call void @llvm.lifetime.end.p0(i64 1, ptr %12) #7
  %299 = load i16, ptr %6, align 2
  ret i16 %299
}