; Function Attrs: null_pointer_is_valid sspstrong uwtable
define internal fastcc void @assign_rb_info(ptr noundef %0, ptr noundef %1, i16 noundef zeroext %2, i8 noundef zeroext %3, ptr noundef %4) unnamed_addr #0 {
  %6 = tail call ptr @wmem_file_scope()
  %7 = load i32, ptr @proto_umts_mac, align 4
  %8 = tail call ptr @p_get_proto_data(ptr noundef %6, ptr noundef %1, i32 noundef %7, i32 noundef 0)
  %9 = tail call ptr @wmem_file_scope()
  %10 = load i32, ptr @proto_umts_rlc, align 4
  %11 = tail call ptr @p_get_proto_data(ptr noundef %9, ptr noundef %1, i32 noundef %10, i32 noundef 0)
  %.not = icmp eq ptr %8, null
  br i1 %.not, label %12, label %17

12:                                               ; preds = %5
  %13 = tail call ptr @wmem_file_scope()
  %14 = tail call noalias dereferenceable_or_null(388) ptr @wmem_alloc0(ptr noundef %13, i64 noundef 388) #6
  %15 = tail call ptr @wmem_file_scope()
  %16 = load i32, ptr @proto_umts_mac, align 4
  tail call void @p_add_proto_data(ptr noundef %15, ptr noundef %1, i32 noundef %16, i32 noundef 0, ptr noundef %14)
  br label %17

17:                                               ; preds = %12, %5
  %.0101 = phi ptr [ %8, %5 ], [ %14, %12 ]
  %.not109 = icmp eq ptr %11, null
  br i1 %.not109, label %18, label %23

18:                                               ; preds = %17
  %19 = tail call ptr @wmem_file_scope()
  %20 = tail call noalias dereferenceable_or_null(768) ptr @wmem_alloc0(ptr noundef %19, i64 noundef 768) #6
  %21 = tail call ptr @wmem_file_scope()
  %22 = load i32, ptr @proto_umts_rlc, align 4
  tail call void @p_add_proto_data(ptr noundef %21, ptr noundef %1, i32 noundef %22, i32 noundef 0, ptr noundef %20)
  br label %23

23:                                               ; preds = %18, %17
  %.0100 = phi ptr [ %11, %17 ], [ %20, %18 ]
  %.not120 = icmp eq i8 %3, 0
  br i1 %.not120, label %.loopexit, label %.lr.ph

.lr.ph:                                           ; preds = %23
  %24 = getelementptr inbounds nuw i8, ptr %.0100, i64 256
  %25 = getelementptr inbounds nuw i8, ptr %.0100, i64 320
  %26 = getelementptr inbounds nuw i8, ptr %.0100, i64 640
  %27 = getelementptr inbounds nuw i8, ptr %.0100, i64 704
  %28 = getelementptr inbounds nuw i8, ptr %.0100, i64 384
  %29 = getelementptr inbounds nuw i8, ptr %.0101, i64 64
  %.not110 = icmp eq ptr %4, null
  %wide.trip.count = zext i8 %3 to i64
  br label %30

30:                                               ; preds = %.lr.ph, %89
  %indvars.iv = phi i64 [ 0, %.lr.ph ], [ %indvars.iv.next, %89 ]
  %.099119 = phi i16 [ %2, %.lr.ph ], [ %90, %89 ]
  %31 = zext i16 %.099119 to i32
  %32 = tail call i32 @tvb_get_letohl(ptr noundef %0, i32 noundef %31)
  %33 = add nuw nsw i32 %31, 4
  %34 = tail call zeroext i8 @tvb_get_uint8(ptr noundef %0, i32 noundef %33)
  %35 = add nuw nsw i32 %31, 5
  %36 = tail call zeroext i8 @tvb_get_uint8(ptr noundef %0, i32 noundef %35)
  %37 = lshr i8 %36, 1
  %38 = and i8 %37, 1
  %39 = lshr i8 %36, 2
  %40 = and i8 %39, 1
  %41 = lshr i8 %36, 3
  %42 = and i8 %41, 1
  %exitcond = icmp eq i64 %indvars.iv, 64
  br i1 %exitcond, label %43, label %46

43:                                               ; preds = %30
  %44 = zext i8 %3 to i32
  %45 = tail call ptr (ptr, ptr, ptr, ptr, i32, i32, ptr, ...) @proto_tree_add_expert_format(ptr noundef %4, ptr noundef %1, ptr noundef nonnull @ei_fph_radio_bearers, ptr noundef %0, i32 noundef %31, i32 noundef -1, ptr noundef nonnull @.str.77, i32 noundef %44, i32 noundef 64)
  br label %.loopexit

46:                                               ; preds = %30
  %47 = shl i8 %36, 4
  %48 = and i8 %47, 16
  %49 = lshr i8 %34, 4
  %50 = or disjoint i8 %48, %49
  %51 = lshr i8 %34, 2
  %52 = and i8 %51, 3
  %53 = and i8 %34, 3
  %54 = getelementptr [64 x i8], ptr %24, i64 0, i64 %indvars.iv
  store i8 %53, ptr %54, align 1
  %55 = getelementptr [64 x i8], ptr %25, i64 0, i64 %indvars.iv
  store i8 %50, ptr %55, align 1
  %56 = getelementptr [64 x i32], ptr %.0100, i64 0, i64 %indvars.iv
  store i32 %32, ptr %56, align 4
  %57 = getelementptr [64 x i8], ptr %26, i64 0, i64 %indvars.iv
  store i8 %40, ptr %57, align 1
  %58 = getelementptr [64 x i8], ptr %27, i64 0, i64 %indvars.iv
  store i8 %42, ptr %58, align 1
  %59 = getelementptr [64 x i32], ptr %28, i64 0, i64 %indvars.iv
  store i32 0, ptr %59, align 4
  %60 = getelementptr [64 x i8], ptr %.0101, i64 0, i64 %indvars.iv
  store i8 %38, ptr %60, align 1
  %61 = getelementptr [64 x i8], ptr %29, i64 0, i64 %indvars.iv
  store i8 %52, ptr %61, align 1
  br i1 %.not110, label %89, label %62

62:                                               ; preds = %46
  %63 = load i32, ptr @hf_fph_rb, align 4
  %64 = tail call ptr @proto_tree_add_item(ptr noundef nonnull %4, i32 noundef %63, ptr noundef %0, i32 noundef %31, i32 noundef 8, i32 noundef 0)
  %65 = load i32, ptr @ett_fph_rb, align 4
  %66 = tail call ptr @proto_item_add_subtree(ptr noundef %64, i32 noundef %65)
  %.not111 = icmp eq i32 %32, 0
  br i1 %.not111, label %70, label %67

67:                                               ; preds = %62
  %68 = load i32, ptr @hf_fph_urnti, align 4
  %69 = tail call ptr @proto_tree_add_uint(ptr noundef %66, i32 noundef %68, ptr noundef %0, i32 noundef %31, i32 noundef 4, i32 noundef %32)
  br label %70

70:                                               ; preds = %67, %62
  %71 = load i32, ptr @hf_fph_content, align 4
  %72 = shl nuw nsw i32 %33, 3
  %73 = or disjoint i32 %72, 4
  %74 = tail call ptr @proto_tree_add_bits_item(ptr noundef %66, i32 noundef %71, ptr noundef %0, i32 noundef %73, i32 noundef 2, i32 noundef -2147483648)
  %75 = load i32, ptr @hf_fph_rlcmode, align 4
  %76 = or disjoint i32 %72, 6
  %77 = tail call ptr @proto_tree_add_bits_item(ptr noundef %66, i32 noundef %75, ptr noundef %0, i32 noundef %76, i32 noundef 2, i32 noundef -2147483648)
  %78 = load i32, ptr @hf_fph_rbid, align 4
  %79 = tail call ptr @proto_tree_add_item(ptr noundef %66, i32 noundef %78, ptr noundef %0, i32 noundef %33, i32 noundef 2, i32 noundef -2147483648)
  %80 = load i32, ptr @hf_fph_ctmux, align 4
  %81 = zext nneg i8 %38 to i64
  %82 = tail call ptr @proto_tree_add_boolean(ptr noundef %66, i32 noundef %80, ptr noundef %0, i32 noundef %35, i32 noundef 1, i64 noundef %81)
  %83 = load i32, ptr @hf_fph_ciphered, align 4
  %84 = zext nneg i8 %40 to i64
  %85 = tail call ptr @proto_tree_add_boolean(ptr noundef %66, i32 noundef %83, ptr noundef %0, i32 noundef %35, i32 noundef 1, i64 noundef %84)
  %86 = load i32, ptr @hf_fph_deciphered, align 4
  %87 = zext nneg i8 %42 to i64
  %88 = tail call ptr @proto_tree_add_boolean(ptr noundef %66, i32 noundef %86, ptr noundef %0, i32 noundef %35, i32 noundef 1, i64 noundef %87)
  br label %89

89:                                               ; preds = %70, %46
  %90 = add i16 %.099119, 8
  %indvars.iv.next = add nuw nsw i64 %indvars.iv, 1
  %exitcond125.not = icmp eq i64 %indvars.iv.next, %wide.trip.count
  br i1 %exitcond125.not, label %.loopexit, label %30, !llvm.loop !9

.loopexit:                                        ; preds = %89, %23, %43
  ret void
}